target datalayout = "e-m:e-p270:32:32-p271:32:32-p272:64:64-i64:64-i128:128-f80:128-n8:16:32:64-S128"
target triple = "x86_64-pc-linux-gnu"

%struct.Curl_easy = type { i32, i64, i64, ptr, %struct.Curl_llist_node, %struct.Curl_llist_node, i32, i32, %struct.Curl_message, %struct.easy_pollset, %struct.Names, ptr, ptr, ptr, %struct.SingleRequest, %struct.UserDefined, ptr, ptr, %struct.Progress, %struct.UrlState, ptr, %struct.PureInfo, %struct.curl_tlssessioninfo }
%struct.Curl_llist_node = type { ptr, ptr, ptr, ptr }
%struct.Curl_message = type { %struct.Curl_llist_node, %struct.CURLMsg }
%struct.CURLMsg = type { i32, ptr, %union.anon }
%union.anon = type { ptr }
%struct.easy_pollset = type { [5 x i32], i32, [5 x i8] }
%struct.Names = type { ptr, i32 }
%struct.SingleRequest = type <{ i64, i64, i64, i64, %struct.curltime, i32, i32, i32, i32, i64, i32, i32, i32, i32, ptr, ptr, %struct.bufq, i64, i64, ptr, ptr, %union.anon.0, ptr, i8, i32, [3 x i8] }>
%struct.curltime = type { i64, i32 }
%struct.bufq = type { ptr, ptr, ptr, ptr, i64, i64, i64, i32 }
%union.anon.0 = type { ptr }
%struct.UserDefined = type <{ ptr, ptr, ptr, ptr, ptr, ptr, i16, [6 x i8], i64, i64, i64, ptr, ptr, i64, i16, i16, [4 x i8], ptr, ptr, ptr, ptr, ptr, ptr, ptr, ptr, ptr, ptr, ptr, ptr, ptr, ptr, ptr, ptr, ptr, ptr, ptr, ptr, ptr, ptr, ptr, i32, i32, i32, i32, i32, [4 x i8], i64, i64, i64, i64, i64, i64, i64, i64, ptr, ptr, %struct.curl_mimepart, ptr, ptr, i64, i8, i8, i8, [5 x i8], %struct.ssl_config_data, %struct.ssl_config_data, ptr, i16, i8, i8, [4 x i8], %struct.ssl_general_config, i32, i32, i32, [4 x i8], ptr, ptr, i8, [7 x i8], i64, i8, i8, i8, i8, i32, ptr, ptr, ptr, i8, i8, [2 x i8], i32, [63 x ptr], [8 x ptr], i32, i32, i32, [4 x i8], ptr, ptr, ptr, ptr, ptr, i8, [3 x i8], i32, i32, i32, i64, %struct.Curl_data_priority, ptr, ptr, i64, ptr, i64, ptr, ptr, ptr, i8, [3 x i8], i32, i8, i8, i64, [6 x i8] }>
%struct.curl_mimepart = type { ptr, ptr, i32, i32, ptr, ptr, ptr, ptr, ptr, ptr, ptr, ptr, ptr, ptr, ptr, i64, %struct.mime_state, ptr, %struct.mime_encoder_state, i64 }
%struct.mime_state = type { i32, ptr, i64 }
%struct.mime_encoder_state = type { i64, i64, i64, [256 x i8] }
%struct.ssl_config_data = type { %struct.ssl_primary_config, i64, ptr, ptr, ptr, ptr, ptr, ptr, ptr, i16 }
%struct.ssl_primary_config = type { ptr, ptr, ptr, ptr, ptr, ptr, ptr, ptr, ptr, ptr, ptr, ptr, i8, i32, i8, i8 }
%struct.ssl_general_config = type { i64, i32 }
%struct.Curl_data_priority = type { ptr, ptr, i32, i8 }
%struct.Progress = type { i64, %struct.pgrs_dir, %struct.pgrs_dir, i64, i64, i32, i32, i64, i64, i64, i64, i64, i64, i64, i64, i64, %struct.curltime, %struct.curltime, %struct.curltime, %struct.curltime, [6 x i64], [6 x %struct.curltime], i32, i8 }
%struct.pgrs_dir = type { i64, i64, i64, %struct.pgrs_measure }
%struct.pgrs_measure = type { %struct.curltime, i64 }
%struct.UrlState = type { %struct.curltime, i64, i64, %struct.dynbuf, ptr, i64, ptr, i32, i32, i32, ptr, i64, i32, i64, i32, ptr, %struct.digestdata, %struct.digestdata, %struct.auth, %struct.auth, %struct.Curl_async, ptr, %struct.curltime, %struct.Curl_tree, %struct.Curl_llist, [15 x %struct.time_node], ptr, ptr, i64, i64, %struct.Curl_data_priority, ptr, ptr, ptr, %struct.urlpieces, ptr, ptr, ptr, ptr, ptr, i64, %struct.dynbuf, %struct.Curl_llist, [2 x %struct.curl_header], ptr, i32, ptr, ptr, %struct.store_netrc, %struct.dynamically_allocated_data, i8, i8, i8, i8, i32 }
%struct.digestdata = type { ptr, ptr, ptr, ptr, ptr, ptr, i32, i8, i8 }
%struct.auth = type { i64, i64, i64, i8 }
%struct.Curl_async = type { ptr, ptr, ptr, ptr, i32, i32, i8 }
%struct.Curl_tree = type { ptr, ptr, ptr, ptr, %struct.curltime, ptr }
%struct.time_node = type { %struct.Curl_llist_node, %struct.curltime, i32 }
%struct.urlpieces = type { ptr, ptr, ptr, ptr, ptr, ptr, ptr, ptr }
%struct.dynbuf = type { ptr, i64, i64, i64 }
%struct.Curl_llist = type { ptr, ptr, ptr, i64 }
%struct.curl_header = type { ptr, ptr, i64, i64, i32, ptr }
%struct.store_netrc = type { %struct.dynbuf, ptr, i8 }
%struct.dynamically_allocated_data = type { ptr, ptr, ptr, ptr, ptr, ptr, ptr, ptr, ptr, ptr, ptr, ptr, ptr }
%struct.PureInfo = type { i32, i32, i32, i64, i64, i64, i64, i64, ptr, ptr, i64, i32, %struct.ip_quadruple, i32, ptr, i32, %struct.curl_certinfo, i32, i8 }
%struct.ip_quadruple = type { [46 x i8], [46 x i8], i32, i32 }
%struct.curl_certinfo = type { i32, ptr }
%struct.curl_tlssessioninfo = type { i32, ptr }
%struct.connectdata = type { %struct.Curl_llist_node, ptr, ptr, i64, ptr, i64, ptr, ptr, %struct.hostname, ptr, ptr, %struct.hostname, %struct.proxy_info, %struct.proxy_info, %struct.ip_quadruple, %struct.ip_quadruple, ptr, ptr, ptr, ptr, ptr, %struct.curltime, %struct.curltime, %struct.curltime, [2 x i32], [2 x ptr], [2 x ptr], [2 x ptr], %struct.anon, %struct.easy_pollset, %struct.ssl_primary_config, %struct.ssl_primary_config, %struct.ConnectBits, ptr, ptr, %struct.curltime, i32, i32, %struct.Curl_llist, i32, i32, %struct.ntlmdata, %struct.ntlmdata, %union.anon.1, ptr, i16, i32, i32, i32, i32, i16, i16, i8, i8, i8, i8, i8, i8, i8 }
%struct.hostname = type { ptr, ptr, ptr, ptr }
%struct.proxy_info = type { %struct.hostname, i32, i8, ptr, ptr }
%struct.anon = type { [2 x %struct.curltime], i32 }
%struct.ConnectBits = type { i64 }
%struct.ntlmdata = type { i32, [8 x i8], i32, ptr }
%union.anon.1 = type { %struct.ftp_conn }
%struct.ftp_conn = type { %struct.pingpong, ptr, ptr, ptr, ptr, ptr, ptr, ptr, i8, i64, ptr, i64, i32, i32, i32, i32, i32, i16, i8, i8, i8, i8, i8 }
%struct.pingpong = type { i64, i8, ptr, i64, i64, %struct.curltime, i64, %struct.dynbuf, %struct.dynbuf, i64, i64, ptr, ptr }
%struct.curl_trc_feat = type { ptr, i32 }

@Curl_cfree = external global ptr, align 8
@.str.25 = private unnamed_addr constant [23 x i8] c"Invalid zoneid: %s; %s\00", align 1

; Function Attrs: nounwind uwtable
define internal void @zonefrom_url(ptr noundef %0, ptr noundef %1, ptr noundef %2) #0 {
  %4 = alloca ptr, align 8
  %5 = alloca ptr, align 8
  %6 = alloca ptr, align 8
  %7 = alloca ptr, align 8
  %8 = alloca i32, align 4
  %9 = alloca ptr, align 8
  %10 = alloca i64, align 8
  %11 = alloca i32, align 4
  %12 = alloca [256 x i8], align 16
  store ptr %0, ptr %4, align 8, !tbaa !292
  store ptr %1, ptr %5, align 8, !tbaa !4
  store ptr %2, ptr %6, align 8, !tbaa !181
  call void @llvm.lifetime.start.p0(i64 8, ptr %7) #8
  call void @llvm.lifetime.start.p0(i64 4, ptr %8) #8
  %13 = load ptr, ptr %4, align 8, !tbaa !292
  %14 = call i32 @curl_url_get(ptr noundef %13, i32 noundef 10, ptr noundef %7, i32 noundef 0)
  store i32 %14, ptr %8, align 4, !tbaa !9
  %15 = load i32, ptr %8, align 4, !tbaa !9
  %16 = icmp ne i32 %15, 0
  br i1 %16, label %84, label %17

17:                                               ; preds = %3
  %18 = load ptr, ptr %7, align 8, !tbaa !12
  %19 = icmp ne ptr %18, null
  br i1 %19, label %20, label %84

20:                                               ; preds = %17
  call void @llvm.lifetime.start.p0(i64 8, ptr %9) #8
  call void @llvm.lifetime.start.p0(i64 8, ptr %10) #8
  %21 = load ptr, ptr %7, align 8, !tbaa !12
  %22 = call i64 @strtoul(ptr noundef %21, ptr noundef %9, i32 noundef 10) #8
  store i64 %22, ptr %10, align 8, !tbaa !182
  %23 = load ptr, ptr %9, align 8, !tbaa !12
  %24 = load i8, ptr %23, align 1, !tbaa !236
  %25 = icmp ne i8 %24, 0
  br i1 %25, label %34, label %26

26:                                               ; preds = %20
  %27 = load i64, ptr %10, align 8, !tbaa !182
  %28 = icmp ult i64 %27, 4294967295
  br i1 %28, label %29, label %34

29:                                               ; preds = %26
  %30 = load i64, ptr %10, align 8, !tbaa !182
  %31 = trunc i64 %30 to i32
  %32 = load ptr, ptr %6, align 8, !tbaa !181
  %33 = getelementptr inbounds nuw %struct.connectdata, ptr %32, i32 0, i32 49
  store i32 %31, ptr %33, align 8, !tbaa !301
  br label %81

34:                                               ; preds = %26, %20
  call void @llvm.lifetime.start.p0(i64 4, ptr %11) #8
  store i32 0, ptr %11, align 4, !tbaa !9
  %35 = load ptr, ptr %7, align 8, !tbaa !12
  %36 = call i32 @if_nametoindex(ptr noundef %35) #8
  store i32 %36, ptr %11, align 4, !tbaa !9
  %37 = load i32, ptr %11, align 4, !tbaa !9
  %38 = icmp ne i32 %37, 0
  br i1 %38, label %76, label %39

39:                                               ; preds = %34
  call void @llvm.lifetime.start.p0(i64 256, ptr %12) #8
  br label %40

40:                                               ; preds = %39
  %41 = load ptr, ptr %5, align 8, !tbaa !4
  %42 = icmp ne ptr %41, null
  br i1 %42, label %43, label %73

43:                                               ; preds = %40
  %44 = load ptr, ptr %5, align 8, !tbaa !4
  %45 = getelementptr inbounds nuw %struct.Curl_easy, ptr %44, i32 0, i32 15
  %46 = getelementptr inbounds nuw %struct.UserDefined, ptr %45, i32 0, i32 124
  %47 = load i64, ptr %46, align 2
  %48 = lshr i64 %47, 27
  %49 = and i64 %48, 1
  %50 = trunc i64 %49 to i32
  %51 = icmp ne i32 %50, 0
  br i1 %51, label %52, label %73

52:                                               ; preds = %43
  %53 = load ptr, ptr %5, align 8, !tbaa !4
  %54 = getelementptr inbounds nuw %struct.Curl_easy, ptr %53, i32 0, i32 19
  %55 = getelementptr inbounds nuw %struct.UrlState, ptr %54, i32 0, i32 47
  %56 = load ptr, ptr %55, align 8, !tbaa !221
  %57 = icmp ne ptr %56, null
  br i1 %57, label %58, label %66

58:                                               ; preds = %52
  %59 = load ptr, ptr %5, align 8, !tbaa !4
  %60 = getelementptr inbounds nuw %struct.Curl_easy, ptr %59, i32 0, i32 19
  %61 = getelementptr inbounds nuw %struct.UrlState, ptr %60, i32 0, i32 47
  %62 = load ptr, ptr %61, align 8, !tbaa !221
  %63 = getelementptr inbounds nuw %struct.curl_trc_feat, ptr %62, i32 0, i32 1
  %64 = load i32, ptr %63, align 8, !tbaa !222
  %65 = icmp sge i32 %64, 1
  br i1 %65, label %66, label %73

66:                                               ; preds = %58, %52
  %67 = load ptr, ptr %5, align 8, !tbaa !4
  %68 = load ptr, ptr %7, align 8, !tbaa !12
  %69 = call ptr @__errno_location() #10
  %70 = load i32, ptr %69, align 4, !tbaa !9
  %71 = getelementptr inbounds [256 x i8], ptr %12, i64 0, i64 0
  %72 = call ptr @Curl_strerror(i32 noundef %70, ptr noundef %71, i64 noundef 256)
  call void (ptr, ptr, ...) @Curl_infof(ptr noundef %67, ptr noundef @.str.25, ptr noundef %68, ptr noundef %72)
  br label %73

73:                                               ; preds = %66, %58, %43, %40
  br label %74

74:                                               ; preds = %73
  br label %75

75:                                               ; preds = %74
  call void @llvm.lifetime.end.p0(i64 256, ptr %12) #8
  br label %80

76:                                               ; preds = %34
  %77 = load i32, ptr %11, align 4, !tbaa !9
  %78 = load ptr, ptr %6, align 8, !tbaa !181
  %79 = getelementptr inbounds nuw %struct.connectdata, ptr %78, i32 0, i32 49
  store i32 %77, ptr %79, align 8, !tbaa !301
  br label %80

80:                                               ; preds = %76, %75
  call void @llvm.lifetime.end.p0(i64 4, ptr %11) #8
  br label %81

81:                                               ; preds = %80, %29
  %82 = load ptr, ptr @Curl_cfree, align 8, !tbaa !11
  %83 = load ptr, ptr %7, align 8, !tbaa !12
  call void %82(ptr noundef %83)
  call void @llvm.lifetime.end.p0(i64 8, ptr %10) #8
  call void @llvm.lifetime.end.p0(i64 8, ptr %9) #8
  br label %84

84:                                               ; preds = %81, %17, %3
  call void @llvm.lifetime.end.p0(i64 4, ptr %8) #8
  call void @llvm.lifetime.end.p0(i64 8, ptr %7) #8
  ret void
}