; Function Attrs: nounwind uwtable
define internal fastcc void @zonefrom_url(ptr noundef nonnull %0, ptr noundef %1, ptr noundef nonnull writeonly captures(none) %2) unnamed_addr #0 {
  %4 = alloca ptr, align 8
  %5 = alloca ptr, align 8
  %6 = alloca [256 x i8], align 16
  call void @llvm.lifetime.start.p0(i64 8, ptr nonnull %4) #12
  %7 = call i32 @curl_url_get(ptr noundef nonnull %0, i32 noundef 10, ptr noundef nonnull %4, i32 noundef 0) #12
  %8 = icmp eq i32 %7, 0
  %9 = load ptr, ptr %4, align 8
  %10 = icmp ne ptr %9, null
  %or.cond = select i1 %8, i1 %10, i1 false
  br i1 %or.cond, label %11, label %46

11:                                               ; preds = %3
  call void @llvm.lifetime.start.p0(i64 8, ptr nonnull %5) #12
  %12 = call i64 @strtoul(ptr noundef nonnull %9, ptr noundef nonnull %5, i32 noundef 10) #12
  %13 = load ptr, ptr %5, align 8, !tbaa !8
  %14 = load i8, ptr %13, align 1, !tbaa !219
  %15 = icmp eq i8 %14, 0
  %16 = icmp ult i64 %12, 4294967295
  %or.cond3 = select i1 %15, i1 %16, i1 false
  br i1 %or.cond3, label %17, label %20

17:                                               ; preds = %11
  %18 = trunc nuw i64 %12 to i32
  %19 = getelementptr inbounds nuw i8, ptr %2, i64 1360
  store i32 %18, ptr %19, align 8, !tbaa !256
  br label %43

20:                                               ; preds = %11
  %21 = load ptr, ptr %4, align 8, !tbaa !8
  %22 = call i32 @if_nametoindex(ptr noundef %21) #12
  %.not = icmp eq i32 %22, 0
  br i1 %.not, label %23, label %41

23:                                               ; preds = %20
  call void @llvm.lifetime.start.p0(i64 256, ptr nonnull %6) #12
  %.not18 = icmp eq ptr %1, null
  br i1 %.not18, label %40, label %24

24:                                               ; preds = %23
  %25 = getelementptr inbounds nuw i8, ptr %1, i64 2562
  %26 = load i64, ptr %25, align 2
  %27 = and i64 %26, 134217728
  %.not19 = icmp eq i64 %27, 0
  br i1 %.not19, label %40, label %28

28:                                               ; preds = %24
  %29 = getelementptr inbounds nuw i8, ptr %1, i64 4712
  %30 = load ptr, ptr %29, align 8, !tbaa !199
  %.not20 = icmp eq ptr %30, null
  br i1 %.not20, label %35, label %31

31:                                               ; preds = %28
  %32 = getelementptr inbounds nuw i8, ptr %30, i64 8
  %33 = load i32, ptr %32, align 8, !tbaa !200
  %34 = icmp sgt i32 %33, 0
  br i1 %34, label %35, label %40

35:                                               ; preds = %31, %28
  %36 = load ptr, ptr %4, align 8, !tbaa !8
  %37 = tail call ptr @__errno_location() #14
  %38 = load i32, ptr %37, align 4, !tbaa !214
  %39 = call ptr @Curl_strerror(i32 noundef %38, ptr noundef nonnull %6, i64 noundef 256) #12
  call void (ptr, ptr, ...) @Curl_infof(ptr noundef nonnull %1, ptr noundef nonnull @.str.25, ptr noundef %36, ptr noundef %39) #12
  br label %40

40:                                               ; preds = %35, %31, %24, %23
  call void @llvm.lifetime.end.p0(i64 256, ptr nonnull %6) #12
  br label %43

41:                                               ; preds = %20
  %42 = getelementptr inbounds nuw i8, ptr %2, i64 1360
  store i32 %22, ptr %42, align 8, !tbaa !256
  br label %43

43:                                               ; preds = %40, %41, %17
  %44 = load ptr, ptr @Curl_cfree, align 8, !tbaa !4
  %45 = load ptr, ptr %4, align 8, !tbaa !8
  call void %44(ptr noundef %45) #12
  call void @llvm.lifetime.end.p0(i64 8, ptr nonnull %5) #12
  br label %46

46:                                               ; preds = %43, %3
  call void @llvm.lifetime.end.p0(i64 8, ptr nonnull %4) #12
  ret void
}